target datalayout = "e-m:e-p270:32:32-p271:32:32-p272:64:64-i64:64-i128:128-f80:128-n8:16:32:64-S128"
target triple = "x86_64-pc-linux-gnu"

%struct._Node = type { %union.anon.2 }
%union.anon.2 = type { %struct.BagNode }
%struct.BagNode = type { i32, i32, ptr, ptr, i32, %union.anon.4, i32, i32, i32, i32, i32 }
%union.anon.4 = type { %struct.anon.7 }
%struct.anon.7 = type { ptr, ptr }
%struct.anon.3 = type { i32, i32, ptr, ptr }
%struct.QuantNode = type { i32, i32, ptr, ptr, i32, i32, i32, i32, ptr, ptr, i32, i32 }

; Function Attrs: nounwind uwtable
define dso_local void @onig_node_free(ptr noundef %0) #0 {
  %2 = alloca ptr, align 8
  store ptr %0, ptr %2, align 8, !tbaa !111
  %3 = load ptr, ptr %2, align 8, !tbaa !111
  %4 = icmp eq ptr %3, null
  br i1 %4, label %5, label %6

5:                                                ; preds = %1
  br label %9

6:                                                ; preds = %1
  %7 = load ptr, ptr %2, align 8, !tbaa !111
  call void @node_free_body(ptr noundef %7)
  %8 = load ptr, ptr %2, align 8, !tbaa !111
  call void @free(ptr noundef %8) #8
  br label %9

9:                                                ; preds = %6, %5
  ret void
}

; Function Attrs: nounwind uwtable
define internal i32 @quantifier_type_num(ptr noundef %0) #0 {
  %2 = alloca i32, align 4
  %3 = alloca ptr, align 8
  store ptr %0, ptr %3, align 8, !tbaa !9
  %4 = load ptr, ptr %3, align 8, !tbaa !9
  %5 = getelementptr inbounds nuw %struct.QuantNode, ptr %4, i32 0, i32 6
  %6 = load i32, ptr %5, align 8, !tbaa !135
  %7 = icmp ne i32 %6, 0
  br i1 %7, label %8, label %41

8:                                                ; preds = %1
  %9 = load ptr, ptr %3, align 8, !tbaa !9
  %10 = getelementptr inbounds nuw %struct.QuantNode, ptr %9, i32 0, i32 4
  %11 = load i32, ptr %10, align 8, !tbaa !131
  %12 = icmp eq i32 %11, 0
  br i1 %12, label %13, label %27

13:                                               ; preds = %8
  %14 = load ptr, ptr %3, align 8, !tbaa !9
  %15 = getelementptr inbounds nuw %struct.QuantNode, ptr %14, i32 0, i32 5
  %16 = load i32, ptr %15, align 4, !tbaa !133
  %17 = icmp eq i32 %16, 1
  br i1 %17, label %18, label %19

18:                                               ; preds = %13
  store i32 0, ptr %2, align 4
  br label %75

19:                                               ; preds = %13
  %20 = load ptr, ptr %3, align 8, !tbaa !9
  %21 = getelementptr inbounds nuw %struct.QuantNode, ptr %20, i32 0, i32 5
  %22 = load i32, ptr %21, align 4, !tbaa !133
  %23 = icmp eq i32 %22, -1
  br i1 %23, label %24, label %25

24:                                               ; preds = %19
  store i32 1, ptr %2, align 4
  br label %75

25:                                               ; preds = %19
  br label %26

26:                                               ; preds = %25
  br label %40

27:                                               ; preds = %8
  %28 = load ptr, ptr %3, align 8, !tbaa !9
  %29 = getelementptr inbounds nuw %struct.QuantNode, ptr %28, i32 0, i32 4
  %30 = load i32, ptr %29, align 8, !tbaa !131
  %31 = icmp eq i32 %30, 1
  br i1 %31, label %32, label %39

32:                                               ; preds = %27
  %33 = load ptr, ptr %3, align 8, !tbaa !9
  %34 = getelementptr inbounds nuw %struct.QuantNode, ptr %33, i32 0, i32 5
  %35 = load i32, ptr %34, align 4, !tbaa !133
  %36 = icmp eq i32 %35, -1
  br i1 %36, label %37, label %38

37:                                               ; preds = %32
  store i32 2, ptr %2, align 4
  br label %75

38:                                               ; preds = %32
  br label %39

39:                                               ; preds = %38, %27
  br label %40

40:                                               ; preds = %39, %26
  br label %74

41:                                               ; preds = %1
  %42 = load ptr, ptr %3, align 8, !tbaa !9
  %43 = getelementptr inbounds nuw %struct.QuantNode, ptr %42, i32 0, i32 4
  %44 = load i32, ptr %43, align 8, !tbaa !131
  %45 = icmp eq i32 %44, 0
  br i1 %45, label %46, label %60

46:                                               ; preds = %41
  %47 = load ptr, ptr %3, align 8, !tbaa !9
  %48 = getelementptr inbounds nuw %struct.QuantNode, ptr %47, i32 0, i32 5
  %49 = load i32, ptr %48, align 4, !tbaa !133
  %50 = icmp eq i32 %49, 1
  br i1 %50, label %51, label %52

51:                                               ; preds = %46
  store i32 3, ptr %2, align 4
  br label %75

52:                                               ; preds = %46
  %53 = load ptr, ptr %3, align 8, !tbaa !9
  %54 = getelementptr inbounds nuw %struct.QuantNode, ptr %53, i32 0, i32 5
  %55 = load i32, ptr %54, align 4, !tbaa !133
  %56 = icmp eq i32 %55, -1
  br i1 %56, label %57, label %58

57:                                               ; preds = %52
  store i32 4, ptr %2, align 4
  br label %75

58:                                               ; preds = %52
  br label %59

59:                                               ; preds = %58
  br label %73

60:                                               ; preds = %41
  %61 = load ptr, ptr %3, align 8, !tbaa !9
  %62 = getelementptr inbounds nuw %struct.QuantNode, ptr %61, i32 0, i32 4
  %63 = load i32, ptr %62, align 8, !tbaa !131
  %64 = icmp eq i32 %63, 1
  br i1 %64, label %65, label %72

65:                                               ; preds = %60
  %66 = load ptr, ptr %3, align 8, !tbaa !9
  %67 = getelementptr inbounds nuw %struct.QuantNode, ptr %66, i32 0, i32 5
  %68 = load i32, ptr %67, align 4, !tbaa !133
  %69 = icmp eq i32 %68, -1
  br i1 %69, label %70, label %71

70:                                               ; preds = %65
  store i32 5, ptr %2, align 4
  br label %75

71:                                               ; preds = %65
  br label %72

72:                                               ; preds = %71, %60
  br label %73

73:                                               ; preds = %72, %59
  br label %74

74:                                               ; preds = %73, %40
  store i32 -1, ptr %2, align 4
  br label %75

75:                                               ; preds = %74, %70, %57, %51, %37, %24, %18
  %76 = load i32, ptr %2, align 4
  ret i32 %76
}

; Function Attrs: nounwind uwtable
define dso_local i32 @onig_reduce_nested_quantifier(ptr noundef %0) #0 {
  %2 = alloca i32, align 4
  %3 = alloca ptr, align 8
  %4 = alloca i32, align 4
  %5 = alloca i32, align 4
  %6 = alloca ptr, align 8
  %7 = alloca ptr, align 8
  %8 = alloca ptr, align 8
  %9 = alloca i32, align 4
  %10 = alloca i32, align 4
  store ptr %0, ptr %3, align 8, !tbaa !111
  call void @llvm.lifetime.start.p0(i64 4, ptr %4) #8
  call void @llvm.lifetime.start.p0(i64 4, ptr %5) #8
  call void @llvm.lifetime.start.p0(i64 8, ptr %6) #8
  call void @llvm.lifetime.start.p0(i64 8, ptr %7) #8
  call void @llvm.lifetime.start.p0(i64 8, ptr %8) #8
  %11 = load ptr, ptr %3, align 8, !tbaa !111
  %12 = getelementptr inbounds nuw %struct._Node, ptr %11, i32 0, i32 0
  %13 = getelementptr inbounds nuw %struct.anon.3, ptr %12, i32 0, i32 3
  %14 = load ptr, ptr %13, align 8, !tbaa !12
  store ptr %14, ptr %8, align 8, !tbaa !111
  %15 = load ptr, ptr %3, align 8, !tbaa !111
  %16 = getelementptr inbounds nuw %struct._Node, ptr %15, i32 0, i32 0
  store ptr %16, ptr %6, align 8, !tbaa !9
  %17 = load ptr, ptr %8, align 8, !tbaa !111
  %18 = getelementptr inbounds nuw %struct._Node, ptr %17, i32 0, i32 0
  store ptr %18, ptr %7, align 8, !tbaa !9
  %19 = load ptr, ptr %6, align 8, !tbaa !9
  %20 = call i32 @quantifier_type_num(ptr noundef %19)
  store i32 %20, ptr %4, align 4, !tbaa !10
  %21 = load ptr, ptr %7, align 8, !tbaa !9
  %22 = call i32 @quantifier_type_num(ptr noundef %21)
  store i32 %22, ptr %5, align 4, !tbaa !10
  %23 = load i32, ptr %4, align 4, !tbaa !10
  %24 = icmp slt i32 %23, 0
  br i1 %24, label %28, label %25

25:                                               ; preds = %1
  %26 = load i32, ptr %5, align 4, !tbaa !10
  %27 = icmp slt i32 %26, 0
  br i1 %27, label %28, label %71

28:                                               ; preds = %25, %1
  %29 = load ptr, ptr %6, align 8, !tbaa !9
  %30 = getelementptr inbounds nuw %struct.QuantNode, ptr %29, i32 0, i32 4
  %31 = load i32, ptr %30, align 8, !tbaa !131
  %32 = load ptr, ptr %6, align 8, !tbaa !9
  %33 = getelementptr inbounds nuw %struct.QuantNode, ptr %32, i32 0, i32 5
  %34 = load i32, ptr %33, align 4, !tbaa !133
  %35 = icmp eq i32 %31, %34
  br i1 %35, label %36, label %70

36:                                               ; preds = %28
  %37 = load ptr, ptr %7, align 8, !tbaa !9
  %38 = getelementptr inbounds nuw %struct.QuantNode, ptr %37, i32 0, i32 4
  %39 = load i32, ptr %38, align 8, !tbaa !131
  %40 = load ptr, ptr %7, align 8, !tbaa !9
  %41 = getelementptr inbounds nuw %struct.QuantNode, ptr %40, i32 0, i32 5
  %42 = load i32, ptr %41, align 4, !tbaa !133
  %43 = icmp eq i32 %39, %42
  br i1 %43, label %44, label %70

44:                                               ; preds = %36
  call void @llvm.lifetime.start.p0(i64 4, ptr %9) #8
  %45 = load ptr, ptr %6, align 8, !tbaa !9
  %46 = getelementptr inbounds nuw %struct.QuantNode, ptr %45, i32 0, i32 4
  %47 = load i32, ptr %46, align 8, !tbaa !131
  %48 = load ptr, ptr %7, align 8, !tbaa !9
  %49 = getelementptr inbounds nuw %struct.QuantNode, ptr %48, i32 0, i32 4
  %50 = load i32, ptr %49, align 8, !tbaa !131
  %51 = call i32 @onig_positive_int_multiply(i32 noundef %47, i32 noundef %50)
  store i32 %51, ptr %9, align 4, !tbaa !10
  %52 = load i32, ptr %9, align 4, !tbaa !10
  %53 = icmp slt i32 %52, 0
  br i1 %53, label %54, label %55

54:                                               ; preds = %44
  store i32 -201, ptr %2, align 4
  store i32 1, ptr %10, align 4
  br label %68

55:                                               ; preds = %44
  %56 = load i32, ptr %9, align 4, !tbaa !10
  %57 = load ptr, ptr %6, align 8, !tbaa !9
  %58 = getelementptr inbounds nuw %struct.QuantNode, ptr %57, i32 0, i32 5
  store i32 %56, ptr %58, align 4, !tbaa !133
  %59 = load ptr, ptr %6, align 8, !tbaa !9
  %60 = getelementptr inbounds nuw %struct.QuantNode, ptr %59, i32 0, i32 4
  store i32 %56, ptr %60, align 8, !tbaa !131
  %61 = load ptr, ptr %8, align 8, !tbaa !111
  %62 = getelementptr inbounds nuw %struct._Node, ptr %61, i32 0, i32 0
  %63 = getelementptr inbounds nuw %struct.anon.3, ptr %62, i32 0, i32 3
  %64 = load ptr, ptr %63, align 8, !tbaa !12
  %65 = load ptr, ptr %3, align 8, !tbaa !111
  %66 = getelementptr inbounds nuw %struct._Node, ptr %65, i32 0, i32 0
  %67 = getelementptr inbounds nuw %struct.anon.3, ptr %66, i32 0, i32 3
  store ptr %64, ptr %67, align 8, !tbaa !12
  store i32 2, ptr %10, align 4
  br label %68

68:                                               ; preds = %55, %54
  call void @llvm.lifetime.end.p0(i64 4, ptr %9) #8
  %69 = load i32, ptr %10, align 4
  switch i32 %69, label %157 [
    i32 2, label %152
  ]

70:                                               ; preds = %36, %28
  store i32 0, ptr %2, align 4
  store i32 1, ptr %10, align 4
  br label %157

71:                                               ; preds = %25
  %72 = load i32, ptr %5, align 4, !tbaa !10
  %73 = sext i32 %72 to i64
  %74 = getelementptr inbounds [6 x [6 x i32]], ptr @ReduceTypeTable, i64 0, i64 %73
  %75 = load i32, ptr %4, align 4, !tbaa !10
  %76 = sext i32 %75 to i64
  %77 = getelementptr inbounds [6 x i32], ptr %74, i64 0, i64 %76
  %78 = load i32, ptr %77, align 4, !tbaa !10
  switch i32 %78, label %151 [
    i32 1, label %79
    i32 2, label %82
    i32 3, label %96
    i32 4, label %110
    i32 5, label %124
    i32 6, label %138
    i32 0, label %151
  ]

79:                                               ; preds = %71
  %80 = load ptr, ptr %3, align 8, !tbaa !111
  %81 = load ptr, ptr %8, align 8, !tbaa !111
  call void @llvm.memcpy.p0.p0.i64(ptr align 8 %80, ptr align 8 %81, i64 72, i1 false), !tbaa.struct !134
  br label %152

82:                                               ; preds = %71
  %83 = load ptr, ptr %8, align 8, !tbaa !111
  %84 = getelementptr inbounds nuw %struct._Node, ptr %83, i32 0, i32 0
  %85 = getelementptr inbounds nuw %struct.anon.3, ptr %84, i32 0, i32 3
  %86 = load ptr, ptr %85, align 8, !tbaa !12
  %87 = load ptr, ptr %3, align 8, !tbaa !111
  %88 = getelementptr inbounds nuw %struct._Node, ptr %87, i32 0, i32 0
  %89 = getelementptr inbounds nuw %struct.anon.3, ptr %88, i32 0, i32 3
  store ptr %86, ptr %89, align 8, !tbaa !12
  %90 = load ptr, ptr %6, align 8, !tbaa !9
  %91 = getelementptr inbounds nuw %struct.QuantNode, ptr %90, i32 0, i32 4
  store i32 0, ptr %91, align 8, !tbaa !131
  %92 = load ptr, ptr %6, align 8, !tbaa !9
  %93 = getelementptr inbounds nuw %struct.QuantNode, ptr %92, i32 0, i32 5
  store i32 -1, ptr %93, align 4, !tbaa !133
  %94 = load ptr, ptr %6, align 8, !tbaa !9
  %95 = getelementptr inbounds nuw %struct.QuantNode, ptr %94, i32 0, i32 6
  store i32 1, ptr %95, align 8, !tbaa !135
  br label %152

96:                                               ; preds = %71
  %97 = load ptr, ptr %8, align 8, !tbaa !111
  %98 = getelementptr inbounds nuw %struct._Node, ptr %97, i32 0, i32 0
  %99 = getelementptr inbounds nuw %struct.anon.3, ptr %98, i32 0, i32 3
  %100 = load ptr, ptr %99, align 8, !tbaa !12
  %101 = load ptr, ptr %3, align 8, !tbaa !111
  %102 = getelementptr inbounds nuw %struct._Node, ptr %101, i32 0, i32 0
  %103 = getelementptr inbounds nuw %struct.anon.3, ptr %102, i32 0, i32 3
  store ptr %100, ptr %103, align 8, !tbaa !12
  %104 = load ptr, ptr %6, align 8, !tbaa !9
  %105 = getelementptr inbounds nuw %struct.QuantNode, ptr %104, i32 0, i32 4
  store i32 1, ptr %105, align 8, !tbaa !131
  %106 = load ptr, ptr %6, align 8, !tbaa !9
  %107 = getelementptr inbounds nuw %struct.QuantNode, ptr %106, i32 0, i32 5
  store i32 -1, ptr %107, align 4, !tbaa !133
  %108 = load ptr, ptr %6, align 8, !tbaa !9
  %109 = getelementptr inbounds nuw %struct.QuantNode, ptr %108, i32 0, i32 6
  store i32 1, ptr %109, align 8, !tbaa !135
  br label %152

110:                                              ; preds = %71
  %111 = load ptr, ptr %8, align 8, !tbaa !111
  %112 = getelementptr inbounds nuw %struct._Node, ptr %111, i32 0, i32 0
  %113 = getelementptr inbounds nuw %struct.anon.3, ptr %112, i32 0, i32 3
  %114 = load ptr, ptr %113, align 8, !tbaa !12
  %115 = load ptr, ptr %3, align 8, !tbaa !111
  %116 = getelementptr inbounds nuw %struct._Node, ptr %115, i32 0, i32 0
  %117 = getelementptr inbounds nuw %struct.anon.3, ptr %116, i32 0, i32 3
  store ptr %114, ptr %117, align 8, !tbaa !12
  %118 = load ptr, ptr %6, align 8, !tbaa !9
  %119 = getelementptr inbounds nuw %struct.QuantNode, ptr %118, i32 0, i32 4
  store i32 0, ptr %119, align 8, !tbaa !131
  %120 = load ptr, ptr %6, align 8, !tbaa !9
  %121 = getelementptr inbounds nuw %struct.QuantNode, ptr %120, i32 0, i32 5
  store i32 -1, ptr %121, align 4, !tbaa !133
  %122 = load ptr, ptr %6, align 8, !tbaa !9
  %123 = getelementptr inbounds nuw %struct.QuantNode, ptr %122, i32 0, i32 6
  store i32 0, ptr %123, align 8, !tbaa !135
  br label %152

124:                                              ; preds = %71
  %125 = load ptr, ptr %8, align 8, !tbaa !111
  %126 = getelementptr inbounds nuw %struct._Node, ptr %125, i32 0, i32 0
  %127 = getelementptr inbounds nuw %struct.anon.3, ptr %126, i32 0, i32 3
  %128 = load ptr, ptr %127, align 8, !tbaa !12
  %129 = load ptr, ptr %3, align 8, !tbaa !111
  %130 = getelementptr inbounds nuw %struct._Node, ptr %129, i32 0, i32 0
  %131 = getelementptr inbounds nuw %struct.anon.3, ptr %130, i32 0, i32 3
  store ptr %128, ptr %131, align 8, !tbaa !12
  %132 = load ptr, ptr %6, align 8, !tbaa !9
  %133 = getelementptr inbounds nuw %struct.QuantNode, ptr %132, i32 0, i32 4
  store i32 0, ptr %133, align 8, !tbaa !131
  %134 = load ptr, ptr %6, align 8, !tbaa !9
  %135 = getelementptr inbounds nuw %struct.QuantNode, ptr %134, i32 0, i32 5
  store i32 1, ptr %135, align 4, !tbaa !133
  %136 = load ptr, ptr %6, align 8, !tbaa !9
  %137 = getelementptr inbounds nuw %struct.QuantNode, ptr %136, i32 0, i32 6
  store i32 0, ptr %137, align 8, !tbaa !135
  br label %152

138:                                              ; preds = %71
  %139 = load ptr, ptr %6, align 8, !tbaa !9
  %140 = getelementptr inbounds nuw %struct.QuantNode, ptr %139, i32 0, i32 4
  store i32 0, ptr %140, align 8, !tbaa !131
  %141 = load ptr, ptr %6, align 8, !tbaa !9
  %142 = getelementptr inbounds nuw %struct.QuantNode, ptr %141, i32 0, i32 5
  store i32 1, ptr %142, align 4, !tbaa !133
  %143 = load ptr, ptr %6, align 8, !tbaa !9
  %144 = getelementptr inbounds nuw %struct.QuantNode, ptr %143, i32 0, i32 6
  store i32 0, ptr %144, align 8, !tbaa !135
  %145 = load ptr, ptr %7, align 8, !tbaa !9
  %146 = getelementptr inbounds nuw %struct.QuantNode, ptr %145, i32 0, i32 4
  store i32 1, ptr %146, align 8, !tbaa !131
  %147 = load ptr, ptr %7, align 8, !tbaa !9
  %148 = getelementptr inbounds nuw %struct.QuantNode, ptr %147, i32 0, i32 5
  store i32 -1, ptr %148, align 4, !tbaa !133
  %149 = load ptr, ptr %7, align 8, !tbaa !9
  %150 = getelementptr inbounds nuw %struct.QuantNode, ptr %149, i32 0, i32 6
  store i32 1, ptr %150, align 8, !tbaa !135
  br label %151

151:                                              ; preds = %71, %71, %138
  store i32 0, ptr %2, align 4
  store i32 1, ptr %10, align 4
  br label %157

152:                                              ; preds = %68, %124, %110, %96, %82, %79
  %153 = load ptr, ptr %8, align 8, !tbaa !111
  %154 = getelementptr inbounds nuw %struct._Node, ptr %153, i32 0, i32 0
  %155 = getelementptr inbounds nuw %struct.anon.3, ptr %154, i32 0, i32 3
  store ptr null, ptr %155, align 8, !tbaa !12
  %156 = load ptr, ptr %8, align 8, !tbaa !111
  call void @onig_node_free(ptr noundef %156)
  store i32 0, ptr %2, align 4
  store i32 1, ptr %10, align 4
  br label %157

157:                                              ; preds = %152, %68, %151, %70
  call void @llvm.lifetime.end.p0(i64 8, ptr %8) #8
  call void @llvm.lifetime.end.p0(i64 8, ptr %7) #8
  call void @llvm.lifetime.end.p0(i64 8, ptr %6) #8
  call void @llvm.lifetime.end.p0(i64 4, ptr %5) #8
  call void @llvm.lifetime.end.p0(i64 4, ptr %4) #8
  %158 = load i32, ptr %2, align 4
  ret i32 %158
}